; ModuleID = '1/2132.c'
source_filename = "1/2132.c"
target datalayout = "e-m:e-p270:32:32-p271:32:32-p272:64:64-i64:64-f80:128-n8:16:32:64-S128"
target triple = "x86_64-pc-linux-gnu"

@.str = private unnamed_addr constant [3 x i8] c"%d\00", align 1
@.str.1 = private unnamed_addr constant [4 x i8] c"%d\0A\00", align 1

; Function Attrs: noinline nounwind uwtable
define dso_local i32 @fenjie(i32 %0, i32 %1) #0 {
  %3 = alloca i32, align 4
  %4 = alloca i32, align 4
  %5 = alloca i32, align 4
  %6 = alloca i32, align 4
  %7 = alloca i32, align 4
  %8 = alloca i32, align 4
  store i32 %0, i32* %4, align 4
  store i32 %1, i32* %5, align 4
  store i32 0, i32* %7, align 4
  store i32 0, i32* %8, align 4
  store i32 2, i32* %6, align 4
  br label %9

9:                                                ; preds = %22, %2
  %10 = load i32, i32* %6, align 4
  %11 = load i32, i32* %4, align 4
  %12 = icmp sle i32 %10, %11
  br i1 %12, label %13, label %25

13:                                               ; preds = %9
  %14 = load i32, i32* %4, align 4
  %15 = load i32, i32* %6, align 4
  %16 = srem i32 %14, %15
  %17 = icmp eq i32 %16, 0
  br i1 %17, label %18, label %21

18:                                               ; preds = %13
  %19 = load i32, i32* %7, align 4
  %20 = add nsw i32 %19, 1
  store i32 %20, i32* %7, align 4
  br label %21

21:                                               ; preds = %18, %13
  br label %22

22:                                               ; preds = %21
  %23 = load i32, i32* %6, align 4
  %24 = add nsw i32 %23, 1
  store i32 %24, i32* %6, align 4
  br label %9

25:                                               ; preds = %9
  %26 = load i32, i32* %4, align 4
  %27 = icmp eq i32 %26, 1
  br i1 %27, label %28, label %29

28:                                               ; preds = %25
  store i32 1, i32* %3, align 4
  br label %54

29:                                               ; preds = %25
  %30 = load i32, i32* %5, align 4
  store i32 %30, i32* %6, align 4
  br label %31

31:                                               ; preds = %49, %29
  %32 = load i32, i32* %6, align 4
  %33 = load i32, i32* %4, align 4
  %34 = icmp sle i32 %32, %33
  br i1 %34, label %35, label %52

35:                                               ; preds = %31
  %36 = load i32, i32* %4, align 4
  %37 = load i32, i32* %6, align 4
  %38 = srem i32 %36, %37
  %39 = icmp eq i32 %38, 0
  br i1 %39, label %40, label %48

40:                                               ; preds = %35
  %41 = load i32, i32* %8, align 4
  %42 = load i32, i32* %4, align 4
  %43 = load i32, i32* %6, align 4
  %44 = sdiv i32 %42, %43
  %45 = load i32, i32* %6, align 4
  %46 = call i32 @fenjie(i32 %44, i32 %45)
  %47 = add nsw i32 %41, %46
  store i32 %47, i32* %8, align 4
  br label %48

48:                                               ; preds = %40, %35
  br label %49

49:                                               ; preds = %48
  %50 = load i32, i32* %6, align 4
  %51 = add nsw i32 %50, 1
  store i32 %51, i32* %6, align 4
  br label %31

52:                                               ; preds = %31
  %53 = load i32, i32* %8, align 4
  store i32 %53, i32* %3, align 4
  br label %54

54:                                               ; preds = %52, %28
  %55 = load i32, i32* %3, align 4
  ret i32 %55
}

; Function Attrs: noinline nounwind uwtable
define dso_local i32 @main() #0 {
  %1 = alloca i32, align 4
  %2 = alloca i32, align 4
  %3 = alloca i32, align 4
  %4 = alloca i32, align 4
  store i32 0, i32* %1, align 4
  %5 = call i32 (i8*, ...) @__isoc99_scanf(i8* getelementptr inbounds ([3 x i8], [3 x i8]* @.str, i64 0, i64 0), i32* %2)
  store i32 1, i32* %3, align 4
  br label %6

6:                                                ; preds = %15, %0
  %7 = load i32, i32* %3, align 4
  %8 = load i32, i32* %2, align 4
  %9 = icmp sle i32 %7, %8
  br i1 %9, label %10, label %18

10:                                               ; preds = %6
  %11 = call i32 (i8*, ...) @__isoc99_scanf(i8* getelementptr inbounds ([3 x i8], [3 x i8]* @.str, i64 0, i64 0), i32* %4)
  %12 = load i32, i32* %4, align 4
  %13 = call i32 @fenjie(i32 %12, i32 2)
  %14 = call i32 (i8*, ...) @printf(i8* getelementptr inbounds ([4 x i8], [4 x i8]* @.str.1, i64 0, i64 0), i32 %13)
  br label %15

15:                                               ; preds = %10
  %16 = load i32, i32* %3, align 4
  %17 = add nsw i32 %16, 1
  store i32 %17, i32* %3, align 4
  br label %6

18:                                               ; preds = %6
  %19 = load i32, i32* %1, align 4
  ret i32 %19
}

declare dso_local i32 @__isoc99_scanf(i8*, ...) #1

declare dso_local i32 @printf(i8*, ...) #1


!llvm.module.flags = !{!0}
!llvm.ident = !{!1}

!0 = !{i32 1, !"wchar_size", i32 4}
!1 = !{!"clang version 10.0.0-4ubuntu1 "}
